; Function Attrs: mustprogress nofree norecurse nosync nounwind willreturn memory(readwrite, inaccessiblemem: none) uwtable
define ptr @zend_llist_get_next_ex(ptr nocapture noundef %0, ptr noundef %1) local_unnamed_addr #10 {
  %.not = icmp eq ptr %1, null
  %3 = getelementptr inbounds i8, ptr %0, i64 48
  %4 = select i1 %.not, ptr %3, ptr %1
  %5 = load ptr, ptr %4, align 8
  %.not11 = icmp eq ptr %5, null
  br i1 %.not11, label %9, label %6

6:                                                ; preds = %2
  %7 = load ptr, ptr %5, align 8
  store ptr %7, ptr %4, align 8
  %.not12 = icmp eq ptr %7, null
  %8 = getelementptr inbounds i8, ptr %7, i64 16
  %spec.select = select i1 %.not12, ptr null, ptr %8
  br label %9

9:                                                ; preds = %6, %2
  %.0 = phi ptr [ null, %2 ], [ %spec.select, %6 ]
  ret ptr %.0
}